; Function Attrs: mustprogress nounwind null_pointer_is_valid sspstrong uwtable
define void @_ZN14InfoProxyModelD2Ev(ptr noundef align 8 dereferenceable_or_null(48) initializes((0, 8)) %0) unnamed_addr #2 align 2 personality ptr @__gxx_personality_v0 {
  store ptr getelementptr inbounds nuw inrange(-16, 432) (i8, ptr @_ZTV14InfoProxyModel, i64 16), ptr %0, align 8
  %2 = getelementptr inbounds nuw i8, ptr %0, i64 24
  invoke void @_ZN5QListI7QStringE5clearEv(ptr noundef nonnull align 8 dereferenceable_or_null(24) %2)
          to label %3 unwind label %18

3:                                                ; preds = %1
  %4 = load ptr, ptr %2, align 8
  %.not.i.i.i = icmp eq ptr %4, null
  br i1 %.not.i.i.i, label %_ZN5QListI7QStringED2Ev.exit, label %_ZN17QArrayDataPointerI7QStringE5derefEv.exit.i.i

_ZN17QArrayDataPointerI7QStringE5derefEv.exit.i.i: ; preds = %3
  %5 = atomicrmw sub ptr %4, i32 1 seq_cst, align 4
  %.not.i.i = icmp eq i32 %5, 1
  br i1 %.not.i.i, label %6, label %_ZN5QListI7QStringED2Ev.exit

6:                                                ; preds = %_ZN17QArrayDataPointerI7QStringE5derefEv.exit.i.i
  %7 = getelementptr inbounds nuw i8, ptr %0, i64 32
  %8 = load ptr, ptr %7, align 8
  %9 = getelementptr inbounds nuw i8, ptr %0, i64 40
  %10 = load i64, ptr %9, align 8
  %11 = getelementptr %class.QString, ptr %8, i64 %10
  %.idx.i.i.i = mul i64 %10, 24
  %.not4.i.i.i.i.i.i = icmp eq i64 %.idx.i.i.i, 0
  br i1 %.not4.i.i.i.i.i.i, label %_ZN9QtPrivate16QGenericArrayOpsI7QStringE10destroyAllEv.exit.i.i, label %.lr.ph.i.i.i.i.i.i

.lr.ph.i.i.i.i.i.i:                               ; preds = %6, %_ZSt8_DestroyI7QStringEvPT_.exit.i.i.i.i.i.i
  %.05.i.i.i.i.i.i = phi ptr [ %16, %_ZSt8_DestroyI7QStringEvPT_.exit.i.i.i.i.i.i ], [ %8, %6 ]
  %12 = load ptr, ptr %.05.i.i.i.i.i.i, align 8
  %.not.i.i.i.i.i.i.i.i.i.i = icmp eq ptr %12, null
  br i1 %.not.i.i.i.i.i.i.i.i.i.i, label %_ZSt8_DestroyI7QStringEvPT_.exit.i.i.i.i.i.i, label %_ZN17QArrayDataPointerIDsE5derefEv.exit.i.i.i.i.i.i.i.i.i

_ZN17QArrayDataPointerIDsE5derefEv.exit.i.i.i.i.i.i.i.i.i: ; preds = %.lr.ph.i.i.i.i.i.i
  %13 = atomicrmw sub ptr %12, i32 1 seq_cst, align 4
  %.not.i.i.i.i.i.i.i.i.i = icmp eq i32 %13, 1
  br i1 %.not.i.i.i.i.i.i.i.i.i, label %14, label %_ZSt8_DestroyI7QStringEvPT_.exit.i.i.i.i.i.i

14:                                               ; preds = %_ZN17QArrayDataPointerIDsE5derefEv.exit.i.i.i.i.i.i.i.i.i
  %15 = load ptr, ptr %.05.i.i.i.i.i.i, align 8
  tail call void @_ZN10QArrayData10deallocateEPS_xx(ptr noundef %15, i64 noundef 2, i64 noundef 8) #15
  br label %_ZSt8_DestroyI7QStringEvPT_.exit.i.i.i.i.i.i

_ZSt8_DestroyI7QStringEvPT_.exit.i.i.i.i.i.i:     ; preds = %14, %_ZN17QArrayDataPointerIDsE5derefEv.exit.i.i.i.i.i.i.i.i.i, %.lr.ph.i.i.i.i.i.i
  %16 = getelementptr i8, ptr %.05.i.i.i.i.i.i, i64 24
  %.not.i.i.i.i.i.i = icmp eq ptr %16, %11
  br i1 %.not.i.i.i.i.i.i, label %_ZN9QtPrivate16QGenericArrayOpsI7QStringE10destroyAllEv.exit.i.i, label %.lr.ph.i.i.i.i.i.i, !llvm.loop !6

_ZN9QtPrivate16QGenericArrayOpsI7QStringE10destroyAllEv.exit.i.i: ; preds = %_ZSt8_DestroyI7QStringEvPT_.exit.i.i.i.i.i.i, %6
  %17 = load ptr, ptr %2, align 8
  tail call void @_ZN10QArrayData10deallocateEPS_xx(ptr noundef %17, i64 noundef 24, i64 noundef 8) #15
  br label %_ZN5QListI7QStringED2Ev.exit

_ZN5QListI7QStringED2Ev.exit:                     ; preds = %3, %_ZN17QArrayDataPointerI7QStringE5derefEv.exit.i.i, %_ZN9QtPrivate16QGenericArrayOpsI7QStringE10destroyAllEv.exit.i.i
  tail call void @_ZN19QIdentityProxyModelD2Ev(ptr noundef align 8 dereferenceable_or_null(16) %0) #15
  ret void

18:                                               ; preds = %1
  %19 = landingpad { ptr, i32 }
          catch ptr null
  %20 = extractvalue { ptr, i32 } %19, 0
  tail call void @__clang_call_terminate(ptr %20) #16
  unreachable
}